(dp1
S'b1'
p2
cnumpy.core.multiarray
_reconstruct
p3
(cnumpy
ndarray
p4
(I0
tS'b'
tRp5
(I1
(I2
I1
tcnumpy
dtype
p6
(S'f8'
I0
I1
tRp7
(I3
S'<'
NNNI-1
I-1
I0
tbI00
S'="\xf0o0f\x1f@w[\x03\x05\x7fD\x18\xc0'
tbsS'W1'
p8
g3
(g4
(I0
tS'b'
tRp9
(I1
(I2
I1
tg7
I00
S'h\xe0U\xf1\x0fv-\xc0j\x1c\xd5\xff\xd9Z.@'
tbs.