(dp1
S'b1'
p2
cnumpy.core.multiarray
_reconstruct
p3
(cnumpy
ndarray
p4
(I0
tS'b'
tRp5
(I1
(I2
I1
tcnumpy
dtype
p6
(S'f8'
I0
I1
tRp7
(I3
S'<'
NNNI-1
I-1
I0
tbI00
S'Y\x98\xb0\xd1\xa1\x13"@o\x9a\x97\xf4G\x9f\x1d\xc0'
tbsS'W1'
p8
g3
(g4
(I0
tS'b'
tRp9
(I1
(I2
I1
tg7
I00
S' \xd8\xff3H\x921\xc0[k\x1a4\xe7\x132@'
tbs.